target datalayout = "e-m:e-p270:32:32-p271:32:32-p272:64:64-i64:64-i128:128-f80:128-n8:16:32:64-S128"
target triple = "x86_64-pc-linux-gnu"

%struct.CmapEntry = type { i8, i8, i8, i8, i32, float, float, float, float, float, float }

@Lscale = internal global float 1.000000e+01, align 4
@Weight = internal global float 2.500000e+02, align 4
@total = internal global i32 0, align 4
@cmap_r = internal global [256 x i8] zeroinitializer, align 16
@cmap_g = internal global [256 x i8] zeroinitializer, align 16
@cmap_b = internal global [256 x i8] zeroinitializer, align 16
@Ltab = internal global [256 x float] zeroinitializer, align 16
@Utab = internal global [256 x float] zeroinitializer, align 16
@Vtab = internal global [256 x float] zeroinitializer, align 16

; Function Attrs: nounwind uwtable
define internal i32 @find_nearest(ptr noundef %0) #0 {
  %2 = alloca ptr, align 8
  %3 = alloca i32, align 4
  %4 = alloca i32, align 4
  %5 = alloca i32, align 4
  %6 = alloca float, align 4
  %7 = alloca float, align 4
  %8 = alloca i32, align 4
  %9 = alloca float, align 4
  %10 = alloca float, align 4
  %11 = alloca float, align 4
  %12 = alloca float, align 4
  %13 = alloca float, align 4
  %14 = alloca float, align 4
  %15 = alloca float, align 4
  store ptr %0, ptr %2, align 8
  %16 = load ptr, ptr %2, align 8
  %17 = getelementptr inbounds %struct.CmapEntry, ptr %16, i32 0, i32 0
  %18 = load i8, ptr %17, align 4
  %19 = zext i8 %18 to i32
  store i32 %19, ptr %3, align 4
  %20 = load ptr, ptr %2, align 8
  %21 = getelementptr inbounds %struct.CmapEntry, ptr %20, i32 0, i32 1
  %22 = load i8, ptr %21, align 1
  %23 = zext i8 %22 to i32
  store i32 %23, ptr %4, align 4
  %24 = load ptr, ptr %2, align 8
  %25 = getelementptr inbounds %struct.CmapEntry, ptr %24, i32 0, i32 2
  %26 = load i8, ptr %25, align 2
  %27 = zext i8 %26 to i32
  store i32 %27, ptr %5, align 4
  %28 = load ptr, ptr %2, align 8
  %29 = getelementptr inbounds %struct.CmapEntry, ptr %28, i32 0, i32 5
  %30 = load float, ptr %29, align 4
  store float %30, ptr %6, align 4
  %31 = load i32, ptr %3, align 4
  %32 = load i32, ptr %4, align 4
  %33 = icmp eq i32 %31, %32
  br i1 %33, label %34, label %118

34:                                               ; preds = %1
  %35 = load i32, ptr %4, align 4
  %36 = load i32, ptr %5, align 4
  %37 = icmp eq i32 %35, %36
  br i1 %37, label %38, label %118

38:                                               ; preds = %34
  %39 = load ptr, ptr %2, align 8
  %40 = getelementptr inbounds %struct.CmapEntry, ptr %39, i32 0, i32 8
  %41 = load float, ptr %40, align 4
  store float %41, ptr %7, align 4
  %42 = load ptr, ptr %2, align 8
  %43 = getelementptr inbounds %struct.CmapEntry, ptr %42, i32 0, i32 4
  %44 = load i32, ptr %43, align 4
  store i32 %44, ptr %8, align 4
  br label %45

45:                                               ; preds = %111, %38
  %46 = load i32, ptr %8, align 4
  %47 = load i32, ptr @total, align 4
  %48 = icmp slt i32 %46, %47
  br i1 %48, label %49, label %114

49:                                               ; preds = %45
  %50 = load i32, ptr %8, align 4
  %51 = sext i32 %50 to i64
  %52 = getelementptr inbounds [256 x i8], ptr @cmap_r, i64 0, i64 %51
  %53 = load i8, ptr %52, align 1
  %54 = zext i8 %53 to i32
  %55 = load i32, ptr %8, align 4
  %56 = sext i32 %55 to i64
  %57 = getelementptr inbounds [256 x i8], ptr @cmap_g, i64 0, i64 %56
  %58 = load i8, ptr %57, align 1
  %59 = zext i8 %58 to i32
  %60 = icmp ne i32 %54, %59
  br i1 %60, label %73, label %61

61:                                               ; preds = %49
  %62 = load i32, ptr %8, align 4
  %63 = sext i32 %62 to i64
  %64 = getelementptr inbounds [256 x i8], ptr @cmap_g, i64 0, i64 %63
  %65 = load i8, ptr %64, align 1
  %66 = zext i8 %65 to i32
  %67 = load i32, ptr %8, align 4
  %68 = sext i32 %67 to i64
  %69 = getelementptr inbounds [256 x i8], ptr @cmap_b, i64 0, i64 %68
  %70 = load i8, ptr %69, align 1
  %71 = zext i8 %70 to i32
  %72 = icmp ne i32 %66, %71
  br i1 %72, label %73, label %74

73:                                               ; preds = %61, %49
  br label %111

74:                                               ; preds = %61
  %75 = load i32, ptr %8, align 4
  %76 = sext i32 %75 to i64
  %77 = getelementptr inbounds [256 x float], ptr @Ltab, i64 0, i64 %76
  %78 = load float, ptr %77, align 4
  %79 = load float, ptr %6, align 4
  %80 = fsub float %78, %79
  store float %80, ptr %9, align 4
  %81 = load float, ptr %9, align 4
  %82 = load float, ptr %9, align 4
  %83 = fmul float %82, %81
  store float %83, ptr %9, align 4
  %84 = load float, ptr %9, align 4
  %85 = load float, ptr %7, align 4
  %86 = fcmp olt float %84, %85
  br i1 %86, label %87, label %110

87:                                               ; preds = %74
  %88 = load float, ptr %9, align 4
  store float %88, ptr %7, align 4
  %89 = load float, ptr %7, align 4
  %90 = load ptr, ptr %2, align 8
  %91 = getelementptr inbounds %struct.CmapEntry, ptr %90, i32 0, i32 8
  store float %89, ptr %91, align 4
  %92 = load float, ptr %7, align 4
  %93 = load ptr, ptr %2, align 8
  %94 = getelementptr inbounds %struct.CmapEntry, ptr %93, i32 0, i32 10
  store float %92, ptr %94, align 4
  %95 = load float, ptr @Weight, align 4
  %96 = load float, ptr %7, align 4
  %97 = load float, ptr @Lscale, align 4
  %98 = fmul float %96, %97
  %99 = fmul float %95, %98
  %100 = load float, ptr @Weight, align 4
  %101 = load float, ptr %6, align 4
  %102 = fadd float %100, %101
  %103 = fdiv float %99, %102
  %104 = load ptr, ptr %2, align 8
  %105 = getelementptr inbounds %struct.CmapEntry, ptr %104, i32 0, i32 9
  store float %103, ptr %105, align 4
  %106 = load i32, ptr %8, align 4
  %107 = trunc i32 %106 to i8
  %108 = load ptr, ptr %2, align 8
  %109 = getelementptr inbounds %struct.CmapEntry, ptr %108, i32 0, i32 3
  store i8 %107, ptr %109, align 1
  br label %110

110:                                              ; preds = %87, %74
  br label %111

111:                                              ; preds = %110, %73
  %112 = load i32, ptr %8, align 4
  %113 = add nsw i32 %112, 1
  store i32 %113, ptr %8, align 4
  br label %45, !llvm.loop !24

114:                                              ; preds = %45
  %115 = load i32, ptr @total, align 4
  %116 = load ptr, ptr %2, align 8
  %117 = getelementptr inbounds %struct.CmapEntry, ptr %116, i32 0, i32 4
  store i32 %115, ptr %117, align 4
  br label %204

118:                                              ; preds = %34, %1
  %119 = load ptr, ptr %2, align 8
  %120 = getelementptr inbounds %struct.CmapEntry, ptr %119, i32 0, i32 6
  %121 = load float, ptr %120, align 4
  store float %121, ptr %10, align 4
  %122 = load ptr, ptr %2, align 8
  %123 = getelementptr inbounds %struct.CmapEntry, ptr %122, i32 0, i32 7
  %124 = load float, ptr %123, align 4
  store float %124, ptr %11, align 4
  %125 = load ptr, ptr %2, align 8
  %126 = getelementptr inbounds %struct.CmapEntry, ptr %125, i32 0, i32 8
  %127 = load float, ptr %126, align 4
  store float %127, ptr %7, align 4
  %128 = load ptr, ptr %2, align 8
  %129 = getelementptr inbounds %struct.CmapEntry, ptr %128, i32 0, i32 4
  %130 = load i32, ptr %129, align 4
  store i32 %130, ptr %8, align 4
  br label %131

131:                                              ; preds = %197, %118
  %132 = load i32, ptr %8, align 4
  %133 = load i32, ptr @total, align 4
  %134 = icmp slt i32 %132, %133
  br i1 %134, label %135, label %200

135:                                              ; preds = %131
  %136 = load i32, ptr %8, align 4
  %137 = sext i32 %136 to i64
  %138 = getelementptr inbounds [256 x float], ptr @Ltab, i64 0, i64 %137
  %139 = load float, ptr %138, align 4
  %140 = load float, ptr %6, align 4
  %141 = fsub float %139, %140
  store float %141, ptr %12, align 4
  %142 = load float, ptr %12, align 4
  %143 = load float, ptr @Lscale, align 4
  %144 = fmul float %142, %143
  %145 = load float, ptr %12, align 4
  %146 = fmul float %145, %144
  store float %146, ptr %12, align 4
  %147 = load i32, ptr %8, align 4
  %148 = sext i32 %147 to i64
  %149 = getelementptr inbounds [256 x float], ptr @Utab, i64 0, i64 %148
  %150 = load float, ptr %149, align 4
  %151 = load float, ptr %10, align 4
  %152 = fsub float %150, %151
  store float %152, ptr %13, align 4
  %153 = load float, ptr %13, align 4
  %154 = load float, ptr %13, align 4
  %155 = fmul float %154, %153
  store float %155, ptr %13, align 4
  %156 = load i32, ptr %8, align 4
  %157 = sext i32 %156 to i64
  %158 = getelementptr inbounds [256 x float], ptr @Vtab, i64 0, i64 %157
  %159 = load float, ptr %158, align 4
  %160 = load float, ptr %11, align 4
  %161 = fsub float %159, %160
  store float %161, ptr %14, align 4
  %162 = load float, ptr %14, align 4
  %163 = load float, ptr %14, align 4
  %164 = fmul float %163, %162
  store float %164, ptr %14, align 4
  %165 = load float, ptr %12, align 4
  %166 = load float, ptr %13, align 4
  %167 = fadd float %165, %166
  %168 = load float, ptr %14, align 4
  %169 = fadd float %167, %168
  store float %169, ptr %15, align 4
  %170 = load float, ptr %15, align 4
  %171 = load float, ptr %7, align 4
  %172 = fcmp olt float %170, %171
  br i1 %172, label %173, label %196

173:                                              ; preds = %135
  %174 = load float, ptr %15, align 4
  store float %174, ptr %7, align 4
  %175 = load float, ptr %7, align 4
  %176 = load ptr, ptr %2, align 8
  %177 = getelementptr inbounds %struct.CmapEntry, ptr %176, i32 0, i32 8
  store float %175, ptr %177, align 4
  %178 = load float, ptr @Weight, align 4
  %179 = load float, ptr %15, align 4
  %180 = fmul float %178, %179
  %181 = load float, ptr @Weight, align 4
  %182 = load float, ptr %6, align 4
  %183 = fadd float %181, %182
  %184 = fdiv float %180, %183
  %185 = load ptr, ptr %2, align 8
  %186 = getelementptr inbounds %struct.CmapEntry, ptr %185, i32 0, i32 9
  store float %184, ptr %186, align 4
  %187 = load float, ptr %12, align 4
  %188 = load float, ptr @Lscale, align 4
  %189 = fdiv float %187, %188
  %190 = load ptr, ptr %2, align 8
  %191 = getelementptr inbounds %struct.CmapEntry, ptr %190, i32 0, i32 10
  store float %189, ptr %191, align 4
  %192 = load i32, ptr %8, align 4
  %193 = trunc i32 %192 to i8
  %194 = load ptr, ptr %2, align 8
  %195 = getelementptr inbounds %struct.CmapEntry, ptr %194, i32 0, i32 3
  store i8 %193, ptr %195, align 1
  br label %196

196:                                              ; preds = %173, %135
  br label %197

197:                                              ; preds = %196
  %198 = load i32, ptr %8, align 4
  %199 = add nsw i32 %198, 1
  store i32 %199, ptr %8, align 4
  br label %131, !llvm.loop !25

200:                                              ; preds = %131
  %201 = load i32, ptr @total, align 4
  %202 = load ptr, ptr %2, align 8
  %203 = getelementptr inbounds %struct.CmapEntry, ptr %202, i32 0, i32 4
  store i32 %201, ptr %203, align 4
  br label %204

204:                                              ; preds = %200, %114
  %205 = load ptr, ptr %2, align 8
  %206 = getelementptr inbounds %struct.CmapEntry, ptr %205, i32 0, i32 3
  %207 = load i8, ptr %206, align 1
  %208 = zext i8 %207 to i32
  ret i32 %208
}