; Function Attrs: nofree norecurse nosync nounwind memory(read, argmem: readwrite, inaccessiblemem: none) uwtable
define internal fastcc void @find_nearest(ptr nocapture noundef %0) unnamed_addr #3 {
  %2 = load i8, ptr %0, align 4
  %3 = getelementptr inbounds i8, ptr %0, i64 1
  %4 = load i8, ptr %3, align 1
  %5 = getelementptr inbounds i8, ptr %0, i64 8
  %6 = load float, ptr %5, align 4
  %7 = icmp eq i8 %2, %4
  br i1 %7, label %8, label %46

8:                                                ; preds = %1
  %9 = getelementptr inbounds i8, ptr %0, i64 2
  %10 = load i8, ptr %9, align 2
  %11 = icmp eq i8 %2, %10
  br i1 %11, label %12, label %46

12:                                               ; preds = %8
  %13 = getelementptr inbounds i8, ptr %0, i64 20
  %14 = getelementptr inbounds i8, ptr %0, i64 4
  %15 = load i32, ptr %14, align 4
  %16 = load i32, ptr @total, align 4
  %17 = icmp slt i32 %15, %16
  br i1 %17, label %.lr.ph82, label %._crit_edge83

.lr.ph82:                                         ; preds = %12
  %18 = load float, ptr %13, align 4
  %19 = getelementptr inbounds i8, ptr %0, i64 28
  %20 = load float, ptr @Weight, align 4
  %21 = load float, ptr @Lscale, align 4
  %22 = fadd float %6, %20
  %23 = getelementptr inbounds i8, ptr %0, i64 24
  %24 = getelementptr inbounds i8, ptr %0, i64 3
  %25 = sext i32 %15 to i64
  %wide.trip.count89 = sext i32 %16 to i64
  br label %26

26:                                               ; preds = %.lr.ph82, %45
  %indvars.iv86 = phi i64 [ %25, %.lr.ph82 ], [ %indvars.iv.next87, %45 ]
  %.080 = phi float [ %18, %.lr.ph82 ], [ %.1, %45 ]
  %27 = getelementptr inbounds [256 x i8], ptr @cmap_r, i64 0, i64 %indvars.iv86
  %28 = load i8, ptr %27, align 1
  %29 = getelementptr inbounds [256 x i8], ptr @cmap_g, i64 0, i64 %indvars.iv86
  %30 = load i8, ptr %29, align 1
  %.not = icmp eq i8 %28, %30
  br i1 %.not, label %31, label %45

31:                                               ; preds = %26
  %32 = getelementptr inbounds [256 x i8], ptr @cmap_b, i64 0, i64 %indvars.iv86
  %33 = load i8, ptr %32, align 1
  %.not75 = icmp eq i8 %28, %33
  br i1 %.not75, label %34, label %45

34:                                               ; preds = %31
  %35 = getelementptr inbounds [256 x float], ptr @Ltab, i64 0, i64 %indvars.iv86
  %36 = load float, ptr %35, align 4
  %37 = fsub float %36, %6
  %38 = fmul float %37, %37
  %39 = fcmp olt float %38, %.080
  br i1 %39, label %40, label %45

40:                                               ; preds = %34
  store float %38, ptr %13, align 4
  store float %38, ptr %19, align 4
  %41 = fmul float %38, %21
  %42 = fmul float %20, %41
  %43 = fdiv float %42, %22
  store float %43, ptr %23, align 4
  %44 = trunc i64 %indvars.iv86 to i8
  store i8 %44, ptr %24, align 1
  br label %45

45:                                               ; preds = %34, %40, %26, %31
  %.1 = phi float [ %.080, %26 ], [ %.080, %31 ], [ %38, %40 ], [ %.080, %34 ]
  %indvars.iv.next87 = add nsw i64 %indvars.iv86, 1
  %exitcond90.not = icmp eq i64 %indvars.iv.next87, %wide.trip.count89
  br i1 %exitcond90.not, label %._crit_edge83, label %26, !llvm.loop !21

._crit_edge83:                                    ; preds = %45, %12
  store i32 %16, ptr %14, align 4
  br label %89

46:                                               ; preds = %8, %1
  %47 = getelementptr inbounds i8, ptr %0, i64 12
  %48 = load <2 x float>, ptr %47, align 4
  %49 = getelementptr inbounds i8, ptr %0, i64 20
  %50 = getelementptr inbounds i8, ptr %0, i64 4
  %51 = load i32, ptr %50, align 4
  %52 = load i32, ptr @total, align 4
  %53 = icmp slt i32 %51, %52
  br i1 %53, label %.lr.ph, label %._crit_edge

.lr.ph:                                           ; preds = %46
  %54 = load float, ptr %49, align 4
  %55 = load float, ptr @Lscale, align 4
  %56 = load float, ptr @Weight, align 4
  %57 = fadd float %6, %56
  %58 = getelementptr inbounds i8, ptr %0, i64 24
  %59 = getelementptr inbounds i8, ptr %0, i64 3
  %60 = sext i32 %51 to i64
  %wide.trip.count = sext i32 %52 to i64
  %61 = insertelement <2 x float> poison, float %57, i64 0
  %62 = insertelement <2 x float> %61, float %55, i64 1
  br label %63

63:                                               ; preds = %.lr.ph, %88
  %indvars.iv = phi i64 [ %60, %.lr.ph ], [ %indvars.iv.next, %88 ]
  %.278 = phi float [ %54, %.lr.ph ], [ %.3, %88 ]
  %64 = getelementptr inbounds [256 x float], ptr @Ltab, i64 0, i64 %indvars.iv
  %65 = load float, ptr %64, align 4
  %66 = fsub float %65, %6
  %67 = fmul float %66, %55
  %68 = fmul float %66, %67
  %69 = getelementptr inbounds [256 x float], ptr @Utab, i64 0, i64 %indvars.iv
  %70 = load float, ptr %69, align 4
  %71 = getelementptr inbounds [256 x float], ptr @Vtab, i64 0, i64 %indvars.iv
  %72 = load float, ptr %71, align 4
  %73 = insertelement <2 x float> poison, float %70, i64 0
  %74 = insertelement <2 x float> %73, float %72, i64 1
  %75 = fsub <2 x float> %74, %48
  %76 = fmul <2 x float> %75, %75
  %77 = extractelement <2 x float> %76, i64 0
  %78 = fadd float %68, %77
  %79 = extractelement <2 x float> %76, i64 1
  %80 = fadd float %78, %79
  %81 = fcmp olt float %80, %.278
  br i1 %81, label %82, label %88

82:                                               ; preds = %63
  store float %80, ptr %49, align 4
  %83 = fmul float %80, %56
  %84 = insertelement <2 x float> poison, float %83, i64 0
  %85 = insertelement <2 x float> %84, float %68, i64 1
  %86 = fdiv <2 x float> %85, %62
  store <2 x float> %86, ptr %58, align 4
  %87 = trunc i64 %indvars.iv to i8
  store i8 %87, ptr %59, align 1
  br label %88

88:                                               ; preds = %63, %82
  %.3 = phi float [ %80, %82 ], [ %.278, %63 ]
  %indvars.iv.next = add nsw i64 %indvars.iv, 1
  %exitcond.not = icmp eq i64 %indvars.iv.next, %wide.trip.count
  br i1 %exitcond.not, label %._crit_edge, label %63, !llvm.loop !22

._crit_edge:                                      ; preds = %88, %46
  store i32 %52, ptr %50, align 4
  br label %89

89:                                               ; preds = %._crit_edge, %._crit_edge83
  ret void
}